; Function Attrs: mustprogress nounwind uwtable
define dso_local void @_ZN4node4quic7Session12SetLastErrorEONS0_9QuicErrorE(ptr noundef nonnull align 8 dereferenceable(2616) %this, ptr noundef nonnull align 8 dereferenceable(88) %error) local_unnamed_addr #5 align 2 {
entry:
  %reason_.i = getelementptr inbounds i8, ptr %this, i64 2512
  %reason_2.i = getelementptr inbounds i8, ptr %error, i64 8
  %call3.i = tail call noundef nonnull align 8 dereferenceable(32) ptr @_ZNSt7__cxx1112basic_stringIcSt11char_traitsIcESaIcEEaSEOS4_(ptr noundef nonnull align 8 dereferenceable(32) %reason_.i, ptr noundef nonnull align 8 dereferenceable(32) %reason_2.i) #28
  %error_.i = getelementptr inbounds i8, ptr %this, i64 2544
  %error_4.i = getelementptr inbounds i8, ptr %error, i64 40
  tail call void @llvm.memcpy.p0.p0.i64(ptr noundef nonnull align 8 dereferenceable(48) %error_.i, ptr noundef nonnull align 8 dereferenceable(48) %error_4.i, i64 48, i1 false)
  ret void
}